; Function Attrs: nounwind uwtable
define i32 @cli_hex2num(ptr noundef %0) local_unnamed_addr #1 {
  %2 = tail call i64 @strlen(ptr noundef nonnull dereferenceable(1) %0) #26
  %3 = trunc i64 %2 to i32
  %4 = and i32 %3, 1
  %.not = icmp eq i32 %4, 0
  br i1 %.not, label %.preheader, label %6

.preheader:                                       ; preds = %1
  %5 = icmp sgt i32 %3, 0
  br i1 %5, label %.lr.ph.preheader, label %.loopexit

.lr.ph.preheader:                                 ; preds = %.preheader
  %wide.trip.count = and i64 %2, 2147483647
  br label %.lr.ph

6:                                                ; preds = %1
  tail call void (ptr, ...) @cli_errmsg(ptr noundef nonnull @.str.2, ptr noundef %0, i32 noundef %3) #27
  br label %.loopexit

.lr.ph:                                           ; preds = %.lr.ph.preheader, %13
  %indvars.iv = phi i64 [ 0, %.lr.ph.preheader ], [ %indvars.iv.next, %13 ]
  %.01315 = phi i32 [ 0, %.lr.ph.preheader ], [ %15, %13 ]
  %7 = getelementptr inbounds i8, ptr %0, i64 %indvars.iv
  %8 = load i8, ptr %7, align 1
  %9 = zext i8 %8 to i64
  %10 = getelementptr inbounds [256 x i32], ptr @hex_chars, i64 0, i64 %9
  %11 = load i32, ptr %10, align 4
  %12 = icmp slt i32 %11, 0
  br i1 %12, label %.loopexit, label %13

13:                                               ; preds = %.lr.ph
  %14 = shl i32 %.01315, 4
  %15 = or i32 %11, %14
  %indvars.iv.next = add nuw nsw i64 %indvars.iv, 1
  %exitcond.not = icmp eq i64 %indvars.iv.next, %wide.trip.count
  br i1 %exitcond.not, label %.loopexit, label %.lr.ph

.loopexit:                                        ; preds = %.lr.ph, %13, %.preheader, %6
  %.012 = phi i32 [ -1, %6 ], [ 0, %.preheader ], [ %.01315, %.lr.ph ], [ %15, %13 ]
  ret i32 %.012
}